target datalayout = "e-m:e-p270:32:32-p271:32:32-p272:64:64-i64:64-i128:128-f80:128-n8:16:32:64-S128"
target triple = "x86_64-unknown-linux-gnu"

%"class.std::vector" = type { %"struct.std::_Vector_base" }
%"struct.std::_Vector_base" = type { %"struct.std::_Vector_base<double, std::allocator<double>>::_Vector_impl" }
%"struct.std::_Vector_base<double, std::allocator<double>>::_Vector_impl" = type { %"struct.std::_Vector_base<double, std::allocator<double>>::_Vector_impl_data" }
%"struct.std::_Vector_base<double, std::allocator<double>>::_Vector_impl_data" = type { ptr, ptr, ptr }
%"class.QuantLib::MultiStepInverseFloater" = type { %"class.QuantLib::MultiProductMultiStep", %"class.std::vector", %"class.std::vector", %"class.std::vector", %"class.std::vector", %"class.std::vector", %"class.std::vector", double, i64, i64 }
%"class.QuantLib::MultiProductMultiStep" = type { %"class.QuantLib::MarketModelMultiProduct", %"class.std::vector", %"class.QuantLib::EvolutionDescription" }
%"class.QuantLib::MarketModelMultiProduct" = type { ptr }
%"class.QuantLib::EvolutionDescription" = type { i64, %"class.std::vector", %"class.std::vector", %"class.std::vector.0", %"class.std::vector", %"class.std::vector.5" }
%"class.std::vector.0" = type { %"struct.std::_Vector_base.1" }
%"struct.std::_Vector_base.1" = type { %"struct.std::_Vector_base<std::pair<unsigned long, unsigned long>, std::allocator<std::pair<unsigned long, unsigned long>>>::_Vector_impl" }
%"struct.std::_Vector_base<std::pair<unsigned long, unsigned long>, std::allocator<std::pair<unsigned long, unsigned long>>>::_Vector_impl" = type { %"struct.std::_Vector_base<std::pair<unsigned long, unsigned long>, std::allocator<std::pair<unsigned long, unsigned long>>>::_Vector_impl_data" }
%"struct.std::_Vector_base<std::pair<unsigned long, unsigned long>, std::allocator<std::pair<unsigned long, unsigned long>>>::_Vector_impl_data" = type { ptr, ptr, ptr }
%"class.std::vector.5" = type { %"struct.std::_Vector_base.6" }
%"struct.std::_Vector_base.6" = type { %"struct.std::_Vector_base<unsigned long, std::allocator<unsigned long>>::_Vector_impl" }
%"struct.std::_Vector_base<unsigned long, std::allocator<unsigned long>>::_Vector_impl" = type { %"struct.std::_Vector_base<unsigned long, std::allocator<unsigned long>>::_Vector_impl_data" }
%"struct.std::_Vector_base<unsigned long, std::allocator<unsigned long>>::_Vector_impl_data" = type { ptr, ptr, ptr }
%"struct.QuantLib::MarketModelMultiProduct::CashFlow" = type { i64, double }
%"struct.std::_Vector_base.14" = type { %"struct.std::_Vector_base<std::vector<QuantLib::MarketModelMultiProduct::CashFlow>, std::allocator<std::vector<QuantLib::MarketModelMultiProduct::CashFlow>>>::_Vector_impl" }
%"struct.std::_Vector_base<std::vector<QuantLib::MarketModelMultiProduct::CashFlow>, std::allocator<std::vector<QuantLib::MarketModelMultiProduct::CashFlow>>>::_Vector_impl" = type { %"struct.std::_Vector_base<std::vector<QuantLib::MarketModelMultiProduct::CashFlow>, std::allocator<std::vector<QuantLib::MarketModelMultiProduct::CashFlow>>>::_Vector_impl_data" }
%"struct.std::_Vector_base<std::vector<QuantLib::MarketModelMultiProduct::CashFlow>, std::allocator<std::vector<QuantLib::MarketModelMultiProduct::CashFlow>>>::_Vector_impl_data" = type { ptr, ptr, ptr }
%"class.std::vector.18" = type { %"struct.std::_Vector_base.19" }
%"struct.std::_Vector_base.19" = type { %"struct.std::_Vector_base<QuantLib::MarketModelMultiProduct::CashFlow, std::allocator<QuantLib::MarketModelMultiProduct::CashFlow>>::_Vector_impl" }
%"struct.std::_Vector_base<QuantLib::MarketModelMultiProduct::CashFlow, std::allocator<QuantLib::MarketModelMultiProduct::CashFlow>>::_Vector_impl" = type { %"struct.std::_Vector_base<QuantLib::MarketModelMultiProduct::CashFlow, std::allocator<QuantLib::MarketModelMultiProduct::CashFlow>>::_Vector_impl_data" }
%"struct.std::_Vector_base<QuantLib::MarketModelMultiProduct::CashFlow, std::allocator<QuantLib::MarketModelMultiProduct::CashFlow>>::_Vector_impl_data" = type { ptr, ptr, ptr }

; Function Attrs: mustprogress nounwind uwtable
define linkonce_odr noundef nonnull align 8 dereferenceable(8) ptr @_ZNSt6vectorImSaImEEixEm(ptr noundef nonnull align 8 dereferenceable(24) %this, i64 noundef %__n) #3 comdat align 2 {
entry:
  %this.addr = alloca ptr, align 8
  %__n.addr = alloca i64, align 8
  store ptr %this, ptr %this.addr, align 8, !tbaa !3
  store i64 %__n, ptr %__n.addr, align 8, !tbaa !35
  %this1 = load ptr, ptr %this.addr, align 8
  %_M_impl = getelementptr inbounds nuw %"struct.std::_Vector_base.6", ptr %this1, i32 0, i32 0
  %_M_start = getelementptr inbounds nuw %"struct.std::_Vector_base<unsigned long, std::allocator<unsigned long>>::_Vector_impl_data", ptr %_M_impl, i32 0, i32 0
  %0 = load ptr, ptr %_M_start, align 8, !tbaa !45
  %1 = load i64, ptr %__n.addr, align 8, !tbaa !35
  %add.ptr = getelementptr inbounds nuw i64, ptr %0, i64 %1
  ret ptr %add.ptr
}

; Function Attrs: mustprogress nounwind uwtable
define linkonce_odr noundef nonnull align 8 dereferenceable(16) ptr @_ZNSt6vectorIN8QuantLib23MarketModelMultiProduct8CashFlowESaIS2_EEixEm(ptr noundef nonnull align 8 dereferenceable(24) %this, i64 noundef %__n) #3 comdat align 2 {
entry:
  %this.addr = alloca ptr, align 8
  %__n.addr = alloca i64, align 8
  store ptr %this, ptr %this.addr, align 8, !tbaa !3
  store i64 %__n, ptr %__n.addr, align 8, !tbaa !35
  %this1 = load ptr, ptr %this.addr, align 8
  %_M_impl = getelementptr inbounds nuw %"struct.std::_Vector_base.19", ptr %this1, i32 0, i32 0
  %_M_start = getelementptr inbounds nuw %"struct.std::_Vector_base<QuantLib::MarketModelMultiProduct::CashFlow, std::allocator<QuantLib::MarketModelMultiProduct::CashFlow>>::_Vector_impl_data", ptr %_M_impl, i32 0, i32 0
  %0 = load ptr, ptr %_M_start, align 8, !tbaa !43
  %1 = load i64, ptr %__n.addr, align 8, !tbaa !35
  %add.ptr = getelementptr inbounds nuw %"struct.QuantLib::MarketModelMultiProduct::CashFlow", ptr %0, i64 %1
  ret ptr %add.ptr
}

; Function Attrs: mustprogress nounwind uwtable
define linkonce_odr noundef nonnull align 8 dereferenceable(24) ptr @_ZNSt6vectorIS_IN8QuantLib23MarketModelMultiProduct8CashFlowESaIS2_EESaIS4_EEixEm(ptr noundef nonnull align 8 dereferenceable(24) %this, i64 noundef %__n) #3 comdat align 2 {
entry:
  %this.addr = alloca ptr, align 8
  %__n.addr = alloca i64, align 8
  store ptr %this, ptr %this.addr, align 8, !tbaa !3
  store i64 %__n, ptr %__n.addr, align 8, !tbaa !35
  %this1 = load ptr, ptr %this.addr, align 8
  %_M_impl = getelementptr inbounds nuw %"struct.std::_Vector_base.14", ptr %this1, i32 0, i32 0
  %_M_start = getelementptr inbounds nuw %"struct.std::_Vector_base<std::vector<QuantLib::MarketModelMultiProduct::CashFlow>, std::allocator<std::vector<QuantLib::MarketModelMultiProduct::CashFlow>>>::_Vector_impl_data", ptr %_M_impl, i32 0, i32 0
  %0 = load ptr, ptr %_M_start, align 8, !tbaa !41
  %1 = load i64, ptr %__n.addr, align 8, !tbaa !35
  %add.ptr = getelementptr inbounds nuw %"class.std::vector.18", ptr %0, i64 %1
  ret ptr %add.ptr
}

; Function Attrs: inlinehint mustprogress nounwind uwtable
define linkonce_odr noundef nonnull align 8 dereferenceable(8) ptr @_ZSt3maxIdERKT_S2_S2_(ptr noundef nonnull align 8 dereferenceable(8) %__a, ptr noundef nonnull align 8 dereferenceable(8) %__b) #5 comdat {
entry:
  %retval = alloca ptr, align 8
  %__a.addr = alloca ptr, align 8
  %__b.addr = alloca ptr, align 8
  store ptr %__a, ptr %__a.addr, align 8, !tbaa !3
  store ptr %__b, ptr %__b.addr, align 8, !tbaa !3
  %0 = load ptr, ptr %__a.addr, align 8, !tbaa !3
  %1 = load double, ptr %0, align 8, !tbaa !37
  %2 = load ptr, ptr %__b.addr, align 8, !tbaa !3
  %3 = load double, ptr %2, align 8, !tbaa !37
  %cmp = fcmp olt double %1, %3
  br i1 %cmp, label %if.then, label %if.end

if.then:                                          ; preds = %entry
  %4 = load ptr, ptr %__b.addr, align 8, !tbaa !3
  store ptr %4, ptr %retval, align 8
  br label %return

if.end:                                           ; preds = %entry
  %5 = load ptr, ptr %__a.addr, align 8, !tbaa !3
  store ptr %5, ptr %retval, align 8
  br label %return

return:                                           ; preds = %if.end, %if.then
  %6 = load ptr, ptr %retval, align 8
  ret ptr %6
}

; Function Attrs: mustprogress nounwind uwtable
define linkonce_odr noundef nonnull align 8 dereferenceable(8) ptr @_ZNSt6vectorIdSaIdEEixEm(ptr noundef nonnull align 8 dereferenceable(24) %this, i64 noundef %__n) #3 comdat align 2 {
entry:
  %this.addr = alloca ptr, align 8
  %__n.addr = alloca i64, align 8
  store ptr %this, ptr %this.addr, align 8, !tbaa !3
  store i64 %__n, ptr %__n.addr, align 8, !tbaa !35
  %this1 = load ptr, ptr %this.addr, align 8
  %_M_impl = getelementptr inbounds nuw %"struct.std::_Vector_base", ptr %this1, i32 0, i32 0
  %_M_start = getelementptr inbounds nuw %"struct.std::_Vector_base<double, std::allocator<double>>::_Vector_impl_data", ptr %_M_impl, i32 0, i32 0
  %0 = load ptr, ptr %_M_start, align 8, !tbaa !7
  %1 = load i64, ptr %__n.addr, align 8, !tbaa !35
  %add.ptr = getelementptr inbounds nuw double, ptr %0, i64 %1
  ret ptr %add.ptr
}

; Function Attrs: mustprogress uwtable
define noundef zeroext i1 @_ZN8QuantLib23MultiStepInverseFloater12nextTimeStepERKNS_10CurveStateERSt6vectorImSaImEERS4_IS4_INS_23MarketModelMultiProduct8CashFlowESaIS9_EESaISB_EE(ptr noundef nonnull align 8 dereferenceable(328) %this, ptr noundef nonnull align 8 dereferenceable(64) %currentState, ptr noundef nonnull align 8 dereferenceable(24) %numberCashFlowsThisStep, ptr noundef nonnull align 8 dereferenceable(24) %genCashFlows) unnamed_addr #1 align 2 {
entry:
  %this.addr = alloca ptr, align 8
  %currentState.addr = alloca ptr, align 8
  %numberCashFlowsThisStep.addr = alloca ptr, align 8
  %genCashFlows.addr = alloca ptr, align 8
  %liborRate = alloca double, align 8
  %inverseFloatingCoupon = alloca double, align 8
  %ref.tmp = alloca double, align 8
  %ref.tmp6 = alloca double, align 8
  %floatingCoupon = alloca double, align 8
  store ptr %this, ptr %this.addr, align 8, !tbaa !3
  store ptr %currentState, ptr %currentState.addr, align 8, !tbaa !3
  store ptr %numberCashFlowsThisStep, ptr %numberCashFlowsThisStep.addr, align 8, !tbaa !3
  store ptr %genCashFlows, ptr %genCashFlows.addr, align 8, !tbaa !3
  %this1 = load ptr, ptr %this.addr, align 8
  call void @llvm.lifetime.start.p0(i64 8, ptr %liborRate) #16
  %0 = load ptr, ptr %currentState.addr, align 8, !tbaa !3
  %currentIndex_ = getelementptr inbounds nuw %"class.QuantLib::MultiStepInverseFloater", ptr %this1, i32 0, i32 9
  %1 = load i64, ptr %currentIndex_, align 8, !tbaa !36
  %vtable = load ptr, ptr %0, align 8, !tbaa !12
  %vfn = getelementptr inbounds ptr, ptr %vtable, i64 3
  %2 = load ptr, ptr %vfn, align 8
  %call = call noundef double %2(ptr noundef nonnull align 8 dereferenceable(64) %0, i64 noundef %1)
  store double %call, ptr %liborRate, align 8, !tbaa !37
  call void @llvm.lifetime.start.p0(i64 8, ptr %inverseFloatingCoupon) #16
  call void @llvm.lifetime.start.p0(i64 8, ptr %ref.tmp) #16
  %fixedStrikes_ = getelementptr inbounds nuw %"class.QuantLib::MultiStepInverseFloater", ptr %this1, i32 0, i32 3
  %currentIndex_2 = getelementptr inbounds nuw %"class.QuantLib::MultiStepInverseFloater", ptr %this1, i32 0, i32 9
  %3 = load i64, ptr %currentIndex_2, align 8, !tbaa !36
  %call3 = call noundef nonnull align 8 dereferenceable(8) ptr @_ZNSt6vectorIdSaIdEEixEm(ptr noundef nonnull align 8 dereferenceable(24) %fixedStrikes_, i64 noundef %3) #16
  %4 = load double, ptr %call3, align 8, !tbaa !37
  %fixedMultipliers_ = getelementptr inbounds nuw %"class.QuantLib::MultiStepInverseFloater", ptr %this1, i32 0, i32 4
  %currentIndex_4 = getelementptr inbounds nuw %"class.QuantLib::MultiStepInverseFloater", ptr %this1, i32 0, i32 9
  %5 = load i64, ptr %currentIndex_4, align 8, !tbaa !36
  %call5 = call noundef nonnull align 8 dereferenceable(8) ptr @_ZNSt6vectorIdSaIdEEixEm(ptr noundef nonnull align 8 dereferenceable(24) %fixedMultipliers_, i64 noundef %5) #16
  %6 = load double, ptr %call5, align 8, !tbaa !37
  %7 = load double, ptr %liborRate, align 8, !tbaa !37
  %neg = fneg double %6
  %8 = call double @llvm.fmuladd.f64(double %neg, double %7, double %4)
  store double %8, ptr %ref.tmp, align 8, !tbaa !37
  call void @llvm.lifetime.start.p0(i64 8, ptr %ref.tmp6) #16
  store double 0.000000e+00, ptr %ref.tmp6, align 8, !tbaa !37
  %call7 = call noundef nonnull align 8 dereferenceable(8) ptr @_ZSt3maxIdERKT_S2_S2_(ptr noundef nonnull align 8 dereferenceable(8) %ref.tmp, ptr noundef nonnull align 8 dereferenceable(8) %ref.tmp6)
  %9 = load double, ptr %call7, align 8, !tbaa !37
  %fixedAccruals_ = getelementptr inbounds nuw %"class.QuantLib::MultiStepInverseFloater", ptr %this1, i32 0, i32 1
  %currentIndex_8 = getelementptr inbounds nuw %"class.QuantLib::MultiStepInverseFloater", ptr %this1, i32 0, i32 9
  %10 = load i64, ptr %currentIndex_8, align 8, !tbaa !36
  %call9 = call noundef nonnull align 8 dereferenceable(8) ptr @_ZNSt6vectorIdSaIdEEixEm(ptr noundef nonnull align 8 dereferenceable(24) %fixedAccruals_, i64 noundef %10) #16
  %11 = load double, ptr %call9, align 8, !tbaa !37
  %mul = fmul double %9, %11
  call void @llvm.lifetime.end.p0(i64 8, ptr %ref.tmp6) #16
  call void @llvm.lifetime.end.p0(i64 8, ptr %ref.tmp) #16
  store double %mul, ptr %inverseFloatingCoupon, align 8, !tbaa !37
  call void @llvm.lifetime.start.p0(i64 8, ptr %floatingCoupon) #16
  %12 = load double, ptr %liborRate, align 8, !tbaa !37
  %floatingSpreads_ = getelementptr inbounds nuw %"class.QuantLib::MultiStepInverseFloater", ptr %this1, i32 0, i32 5
  %currentIndex_10 = getelementptr inbounds nuw %"class.QuantLib::MultiStepInverseFloater", ptr %this1, i32 0, i32 9
  %13 = load i64, ptr %currentIndex_10, align 8, !tbaa !36
  %call11 = call noundef nonnull align 8 dereferenceable(8) ptr @_ZNSt6vectorIdSaIdEEixEm(ptr noundef nonnull align 8 dereferenceable(24) %floatingSpreads_, i64 noundef %13) #16
  %14 = load double, ptr %call11, align 8, !tbaa !37
  %add = fadd double %12, %14
  %floatingAccruals_ = getelementptr inbounds nuw %"class.QuantLib::MultiStepInverseFloater", ptr %this1, i32 0, i32 2
  %currentIndex_12 = getelementptr inbounds nuw %"class.QuantLib::MultiStepInverseFloater", ptr %this1, i32 0, i32 9
  %15 = load i64, ptr %currentIndex_12, align 8, !tbaa !36
  %call13 = call noundef nonnull align 8 dereferenceable(8) ptr @_ZNSt6vectorIdSaIdEEixEm(ptr noundef nonnull align 8 dereferenceable(24) %floatingAccruals_, i64 noundef %15) #16
  %16 = load double, ptr %call13, align 8, !tbaa !37
  %mul14 = fmul double %add, %16
  store double %mul14, ptr %floatingCoupon, align 8, !tbaa !37
  %currentIndex_15 = getelementptr inbounds nuw %"class.QuantLib::MultiStepInverseFloater", ptr %this1, i32 0, i32 9
  %17 = load i64, ptr %currentIndex_15, align 8, !tbaa !36
  %18 = load ptr, ptr %genCashFlows.addr, align 8, !tbaa !3
  %call16 = call noundef nonnull align 8 dereferenceable(24) ptr @_ZNSt6vectorIS_IN8QuantLib23MarketModelMultiProduct8CashFlowESaIS2_EESaIS4_EEixEm(ptr noundef nonnull align 8 dereferenceable(24) %18, i64 noundef 0) #16
  %call17 = call noundef nonnull align 8 dereferenceable(16) ptr @_ZNSt6vectorIN8QuantLib23MarketModelMultiProduct8CashFlowESaIS2_EEixEm(ptr noundef nonnull align 8 dereferenceable(24) %call16, i64 noundef 0) #16
  %timeIndex = getelementptr inbounds nuw %"struct.QuantLib::MarketModelMultiProduct::CashFlow", ptr %call17, i32 0, i32 0
  store i64 %17, ptr %timeIndex, align 8, !tbaa !38
  %multiplier_ = getelementptr inbounds nuw %"class.QuantLib::MultiStepInverseFloater", ptr %this1, i32 0, i32 7
  %19 = load double, ptr %multiplier_, align 8, !tbaa !16
  %20 = load double, ptr %inverseFloatingCoupon, align 8, !tbaa !37
  %21 = load double, ptr %floatingCoupon, align 8, !tbaa !37
  %sub = fsub double %20, %21
  %mul18 = fmul double %19, %sub
  %22 = load ptr, ptr %genCashFlows.addr, align 8, !tbaa !3
  %call19 = call noundef nonnull align 8 dereferenceable(24) ptr @_ZNSt6vectorIS_IN8QuantLib23MarketModelMultiProduct8CashFlowESaIS2_EESaIS4_EEixEm(ptr noundef nonnull align 8 dereferenceable(24) %22, i64 noundef 0) #16
  %call20 = call noundef nonnull align 8 dereferenceable(16) ptr @_ZNSt6vectorIN8QuantLib23MarketModelMultiProduct8CashFlowESaIS2_EEixEm(ptr noundef nonnull align 8 dereferenceable(24) %call19, i64 noundef 0) #16
  %amount = getelementptr inbounds nuw %"struct.QuantLib::MarketModelMultiProduct::CashFlow", ptr %call20, i32 0, i32 1
  store double %mul18, ptr %amount, align 8, !tbaa !40
  %23 = load ptr, ptr %numberCashFlowsThisStep.addr, align 8, !tbaa !3
  %call21 = call noundef nonnull align 8 dereferenceable(8) ptr @_ZNSt6vectorImSaImEEixEm(ptr noundef nonnull align 8 dereferenceable(24) %23, i64 noundef 0) #16
  store i64 1, ptr %call21, align 8, !tbaa !35
  %currentIndex_22 = getelementptr inbounds nuw %"class.QuantLib::MultiStepInverseFloater", ptr %this1, i32 0, i32 9
  %24 = load i64, ptr %currentIndex_22, align 8, !tbaa !36
  %inc = add i64 %24, 1
  store i64 %inc, ptr %currentIndex_22, align 8, !tbaa !36
  %currentIndex_23 = getelementptr inbounds nuw %"class.QuantLib::MultiStepInverseFloater", ptr %this1, i32 0, i32 9
  %25 = load i64, ptr %currentIndex_23, align 8, !tbaa !36
  %lastIndex_ = getelementptr inbounds nuw %"class.QuantLib::MultiStepInverseFloater", ptr %this1, i32 0, i32 8
  %26 = load i64, ptr %lastIndex_, align 8, !tbaa !34
  %cmp = icmp eq i64 %25, %26
  call void @llvm.lifetime.end.p0(i64 8, ptr %floatingCoupon) #16
  call void @llvm.lifetime.end.p0(i64 8, ptr %inverseFloatingCoupon) #16
  call void @llvm.lifetime.end.p0(i64 8, ptr %liborRate) #16
  ret i1 %cmp
}