; Function Attrs: mustprogress uwtable
define noundef zeroext i1 @_ZN8QuantLib23MultiStepInverseFloater12nextTimeStepERKNS_10CurveStateERSt6vectorImSaImEERS4_IS4_INS_23MarketModelMultiProduct8CashFlowESaIS9_EESaISB_EE(ptr nocapture noundef nonnull align 8 dereferenceable(328) %this, ptr noundef nonnull align 8 dereferenceable(64) %currentState, ptr nocapture noundef nonnull readonly align 8 dereferenceable(24) %numberCashFlowsThisStep, ptr nocapture noundef nonnull readonly align 8 dereferenceable(24) %genCashFlows) unnamed_addr #1 align 2 {
entry:
  %currentIndex_ = getelementptr inbounds nuw i8, ptr %this, i64 320
  %0 = load i64, ptr %currentIndex_, align 8, !tbaa !46
  %vtable = load ptr, ptr %currentState, align 8, !tbaa !12
  %vfn = getelementptr inbounds i8, ptr %vtable, i64 24
  %1 = load ptr, ptr %vfn, align 8
  %call = tail call noundef double %1(ptr noundef nonnull align 8 dereferenceable(64) %currentState, i64 noundef %0)
  %fixedStrikes_ = getelementptr inbounds nuw i8, ptr %this, i64 208
  %2 = load i64, ptr %currentIndex_, align 8, !tbaa !46
  %3 = load ptr, ptr %fixedStrikes_, align 8, !tbaa !10
  %add.ptr.i = getelementptr inbounds nuw double, ptr %3, i64 %2
  %4 = load double, ptr %add.ptr.i, align 8, !tbaa !47
  %fixedMultipliers_ = getelementptr inbounds nuw i8, ptr %this, i64 232
  %5 = load ptr, ptr %fixedMultipliers_, align 8, !tbaa !10
  %add.ptr.i3 = getelementptr inbounds nuw double, ptr %5, i64 %2
  %6 = load double, ptr %add.ptr.i3, align 8, !tbaa !47
  %neg = fneg double %6
  %7 = tail call double @llvm.fmuladd.f64(double %neg, double %call, double %4)
  %cmp.i = fcmp olt double %7, 0.000000e+00
  %.sroa.speculated = select i1 %cmp.i, double 0.000000e+00, double %7
  %fixedAccruals_ = getelementptr inbounds nuw i8, ptr %this, i64 160
  %8 = load ptr, ptr %fixedAccruals_, align 8, !tbaa !10
  %add.ptr.i4 = getelementptr inbounds nuw double, ptr %8, i64 %2
  %9 = load double, ptr %add.ptr.i4, align 8, !tbaa !47
  %mul = fmul double %9, %.sroa.speculated
  %floatingSpreads_ = getelementptr inbounds nuw i8, ptr %this, i64 256
  %10 = load ptr, ptr %floatingSpreads_, align 8, !tbaa !10
  %add.ptr.i5 = getelementptr inbounds nuw double, ptr %10, i64 %2
  %11 = load double, ptr %add.ptr.i5, align 8, !tbaa !47
  %add = fadd double %call, %11
  %floatingAccruals_ = getelementptr inbounds nuw i8, ptr %this, i64 184
  %12 = load ptr, ptr %floatingAccruals_, align 8, !tbaa !10
  %add.ptr.i6 = getelementptr inbounds nuw double, ptr %12, i64 %2
  %13 = load double, ptr %add.ptr.i6, align 8, !tbaa !47
  %mul14 = fmul double %add, %13
  %14 = load ptr, ptr %genCashFlows, align 8, !tbaa !48
  %15 = load ptr, ptr %14, align 8, !tbaa !50
  store i64 %2, ptr %15, align 8, !tbaa !52
  %multiplier_ = getelementptr inbounds nuw i8, ptr %this, i64 304
  %16 = load double, ptr %multiplier_, align 8, !tbaa !14
  %sub = fsub double %mul, %mul14
  %mul18 = fmul double %sub, %16
  %amount = getelementptr inbounds nuw i8, ptr %15, i64 8
  store double %mul18, ptr %amount, align 8, !tbaa !54
  %17 = load ptr, ptr %numberCashFlowsThisStep, align 8, !tbaa !42
  store i64 1, ptr %17, align 8, !tbaa !39
  %18 = load i64, ptr %currentIndex_, align 8, !tbaa !46
  %inc = add i64 %18, 1
  store i64 %inc, ptr %currentIndex_, align 8, !tbaa !46
  %lastIndex_ = getelementptr inbounds nuw i8, ptr %this, i64 312
  %19 = load i64, ptr %lastIndex_, align 8, !tbaa !32
  %cmp = icmp eq i64 %inc, %19
  ret i1 %cmp
}